target datalayout = "e-m:e-p270:32:32-p271:32:32-p272:64:64-i64:64-i128:128-f80:128-n8:16:32:64-S128"
target triple = "x86_64-pc-linux-gnu"

%"struct.cv::rgbd::RgbdFrame" = type { ptr, i32, %"class.cv::Mat", %"class.cv::Mat", %"class.cv::Mat", %"class.cv::Mat" }
%"class.cv::Mat" = type { i32, i32, i32, i32, ptr, ptr, ptr, ptr, ptr, ptr, %"struct.cv::MatSize", %"struct.cv::MatStep" }
%"struct.cv::MatSize" = type { ptr }
%"struct.cv::MatStep" = type { ptr, [2 x i64] }

@_ZTVN2cv4rgbd9RgbdFrameE = unnamed_addr constant { [5 x ptr] } { [5 x ptr] [ptr null, ptr @_ZTIN2cv4rgbd9RgbdFrameE, ptr @_ZN2cv4rgbd9RgbdFrameD1Ev, ptr @_ZN2cv4rgbd9RgbdFrameD0Ev, ptr @_ZN2cv4rgbd9RgbdFrame7releaseEv] }, align 8

; Function Attrs: mustprogress nounwind uwtable
define void @_ZN2cv4rgbd9RgbdFrameC2Ev(ptr noundef nonnull align 8 dereferenceable(400) %0) unnamed_addr #7 align 2 {
  %2 = alloca ptr, align 8
  store ptr %0, ptr %2, align 8, !tbaa !16
  %3 = load ptr, ptr %2, align 8
  store ptr getelementptr inbounds inrange(-16, 24) ({ [5 x ptr] }, ptr @_ZTVN2cv4rgbd9RgbdFrameE, i32 0, i32 0, i32 2), ptr %3, align 8, !tbaa !18
  %4 = getelementptr inbounds nuw %"struct.cv::rgbd::RgbdFrame", ptr %3, i32 0, i32 1
  store i32 -1, ptr %4, align 8, !tbaa !20
  %5 = getelementptr inbounds nuw %"struct.cv::rgbd::RgbdFrame", ptr %3, i32 0, i32 2
  call void @_ZN2cv3MatC1Ev(ptr noundef nonnull align 8 dereferenceable(96) %5) #3
  %6 = getelementptr inbounds nuw %"struct.cv::rgbd::RgbdFrame", ptr %3, i32 0, i32 3
  call void @_ZN2cv3MatC1Ev(ptr noundef nonnull align 8 dereferenceable(96) %6) #3
  %7 = getelementptr inbounds nuw %"struct.cv::rgbd::RgbdFrame", ptr %3, i32 0, i32 4
  call void @_ZN2cv3MatC1Ev(ptr noundef nonnull align 8 dereferenceable(96) %7) #3
  %8 = getelementptr inbounds nuw %"struct.cv::rgbd::RgbdFrame", ptr %3, i32 0, i32 5
  call void @_ZN2cv3MatC1Ev(ptr noundef nonnull align 8 dereferenceable(96) %8) #3
  ret void
}